; Function Attrs: cold nounwind optsize uwtable
define internal i32 @eac3_encode_init(ptr noundef %0) #3 {
  %2 = getelementptr inbounds nuw i8, ptr %0, i64 32
  %3 = load ptr, ptr %2, align 8, !tbaa !40
  %4 = getelementptr inbounds nuw i8, ptr %3, i64 4940
  store i32 1, ptr %4, align 4, !tbaa !53
  %5 = getelementptr inbounds nuw i8, ptr %3, i64 5864
  store ptr @eac3_output_frame_header, ptr %5, align 8, !tbaa !54
  %6 = tail call i32 @pthread_once(ptr noundef nonnull @eac3_encode_init.init_static_once, ptr noundef nonnull @eac3_exponent_init) #9
  %7 = tail call i32 @ff_ac3_float_encode_init(ptr noundef %0) #9
  ret i32 %7
}